target datalayout = "e-m:e-p270:32:32-p271:32:32-p272:64:64-i64:64-i128:128-f80:128-n8:16:32:64-S128"
target triple = "x86_64-pc-linux-gnu"

%struct._zend_signal_entry_t = type { i32, ptr }
%struct.__sigset_t = type { [16 x i64] }
%struct.sigaction = type { %union.anon, %struct.__sigset_t, i32, ptr }
%union.anon = type { ptr }

@global_orig_handlers = internal global [65 x %struct._zend_signal_entry_t] zeroinitializer, align 16

; Function Attrs: nounwind uwtable
define hidden void @zend_signal_init() #0 {
  %1 = alloca i32, align 4
  %2 = alloca %struct.sigaction, align 8
  call void @llvm.memset.p0.i64(ptr align 16 @global_orig_handlers, i8 0, i64 1040, i1 false)
  store i32 1, ptr %1, align 4
  br label %3

3:                                                ; preds = %40, %0
  %4 = load i32, ptr %1, align 4
  %5 = icmp slt i32 %4, 65
  br i1 %5, label %6, label %43

6:                                                ; preds = %3
  %7 = load i32, ptr %1, align 4
  %8 = call i32 @sigaction(i32 noundef %7, ptr noundef null, ptr noundef %2) #8
  %9 = icmp eq i32 %8, 0
  br i1 %9, label %10, label %39

10:                                               ; preds = %6
  %11 = getelementptr inbounds %struct.sigaction, ptr %2, i32 0, i32 2
  %12 = load i32, ptr %11, align 8
  %13 = load i32, ptr %1, align 4
  %14 = sub nsw i32 %13, 1
  %15 = sext i32 %14 to i64
  %16 = getelementptr inbounds [65 x %struct._zend_signal_entry_t], ptr @global_orig_handlers, i64 0, i64 %15
  %17 = getelementptr inbounds %struct._zend_signal_entry_t, ptr %16, i32 0, i32 0
  store i32 %12, ptr %17, align 16
  %18 = getelementptr inbounds %struct.sigaction, ptr %2, i32 0, i32 2
  %19 = load i32, ptr %18, align 8
  %20 = and i32 %19, 4
  %21 = icmp ne i32 %20, 0
  br i1 %21, label %22, label %30

22:                                               ; preds = %10
  %23 = getelementptr inbounds %struct.sigaction, ptr %2, i32 0, i32 0
  %24 = load ptr, ptr %23, align 8
  %25 = load i32, ptr %1, align 4
  %26 = sub nsw i32 %25, 1
  %27 = sext i32 %26 to i64
  %28 = getelementptr inbounds [65 x %struct._zend_signal_entry_t], ptr @global_orig_handlers, i64 0, i64 %27
  %29 = getelementptr inbounds %struct._zend_signal_entry_t, ptr %28, i32 0, i32 1
  store ptr %24, ptr %29, align 8
  br label %38

30:                                               ; preds = %10
  %31 = getelementptr inbounds %struct.sigaction, ptr %2, i32 0, i32 0
  %32 = load ptr, ptr %31, align 8
  %33 = load i32, ptr %1, align 4
  %34 = sub nsw i32 %33, 1
  %35 = sext i32 %34 to i64
  %36 = getelementptr inbounds [65 x %struct._zend_signal_entry_t], ptr @global_orig_handlers, i64 0, i64 %35
  %37 = getelementptr inbounds %struct._zend_signal_entry_t, ptr %36, i32 0, i32 1
  store ptr %32, ptr %37, align 8
  br label %38

38:                                               ; preds = %30, %22
  br label %39

39:                                               ; preds = %38, %6
  br label %40

40:                                               ; preds = %39
  %41 = load i32, ptr %1, align 4
  %42 = add nsw i32 %41, 1
  store i32 %42, ptr %1, align 4
  br label %3

43:                                               ; preds = %3
  ret void
}