; Function Attrs: nounwind uwtable
define hidden void @zend_signal_init() local_unnamed_addr #0 {
  %1 = alloca %struct.sigaction, align 8
  tail call void @llvm.memset.p0.i64(ptr noundef nonnull align 16 dereferenceable(1040) @global_orig_handlers, i8 0, i64 1040, i1 false)
  %2 = getelementptr inbounds i8, ptr %1, i64 136
  br label %3

3:                                                ; preds = %0, %13
  %indvars.iv = phi i64 [ 1, %0 ], [ %indvars.iv.next, %13 ]
  %4 = trunc i64 %indvars.iv to i32
  %5 = call i32 @sigaction(i32 noundef %4, ptr noundef null, ptr noundef nonnull %1) #9
  %6 = icmp eq i32 %5, 0
  br i1 %6, label %7, label %13

7:                                                ; preds = %3
  %8 = load i32, ptr %2, align 8
  %9 = add nsw i64 %indvars.iv, -1
  %10 = getelementptr inbounds [65 x %struct._zend_signal_entry_t], ptr @global_orig_handlers, i64 0, i64 %9
  store i32 %8, ptr %10, align 16
  %11 = load ptr, ptr %1, align 8
  %12 = getelementptr inbounds i8, ptr %10, i64 8
  store ptr %11, ptr %12, align 8
  br label %13

13:                                               ; preds = %7, %3
  %indvars.iv.next = add nuw nsw i64 %indvars.iv, 1
  %exitcond.not = icmp eq i64 %indvars.iv.next, 65
  br i1 %exitcond.not, label %14, label %3

14:                                               ; preds = %13
  ret void
}